target datalayout = "e-m:e-p270:32:32-p271:32:32-p272:64:64-i64:64-i128:128-f80:128-n8:16:32:64-S128"
target triple = "x86_64-pc-linux-gnu"

%struct.lexbor_array_obj_t = type { ptr, i64, i64, i64 }

; Function Attrs: nounwind uwtable
define hidden ptr @lexbor_array_obj_destroy(ptr noundef %0, i1 noundef zeroext %1) #0 {
  %3 = alloca ptr, align 8
  %4 = alloca ptr, align 8
  %5 = alloca i8, align 1
  store ptr %0, ptr %4, align 8
  %6 = zext i1 %1 to i8
  store i8 %6, ptr %5, align 1
  %7 = load ptr, ptr %4, align 8
  %8 = icmp eq ptr %7, null
  br i1 %8, label %9, label %10

9:                                                ; preds = %2
  store ptr null, ptr %3, align 8
  br label %34

10:                                               ; preds = %2
  %11 = load ptr, ptr %4, align 8
  %12 = getelementptr inbounds %struct.lexbor_array_obj_t, ptr %11, i32 0, i32 0
  %13 = load ptr, ptr %12, align 8
  %14 = icmp ne ptr %13, null
  br i1 %14, label %15, label %26

15:                                               ; preds = %10
  %16 = load ptr, ptr %4, align 8
  %17 = getelementptr inbounds %struct.lexbor_array_obj_t, ptr %16, i32 0, i32 2
  store i64 0, ptr %17, align 8
  %18 = load ptr, ptr %4, align 8
  %19 = getelementptr inbounds %struct.lexbor_array_obj_t, ptr %18, i32 0, i32 1
  store i64 0, ptr %19, align 8
  %20 = load ptr, ptr %4, align 8
  %21 = getelementptr inbounds %struct.lexbor_array_obj_t, ptr %20, i32 0, i32 0
  %22 = load ptr, ptr %21, align 8
  %23 = call ptr @lexbor_free(ptr noundef %22)
  %24 = load ptr, ptr %4, align 8
  %25 = getelementptr inbounds %struct.lexbor_array_obj_t, ptr %24, i32 0, i32 0
  store ptr %23, ptr %25, align 8
  br label %26

26:                                               ; preds = %15, %10
  %27 = load i8, ptr %5, align 1
  %28 = trunc i8 %27 to i1
  br i1 %28, label %29, label %32

29:                                               ; preds = %26
  %30 = load ptr, ptr %4, align 8
  %31 = call ptr @lexbor_free(ptr noundef %30)
  store ptr %31, ptr %3, align 8
  br label %34

32:                                               ; preds = %26
  %33 = load ptr, ptr %4, align 8
  store ptr %33, ptr %3, align 8
  br label %34

34:                                               ; preds = %32, %29, %9
  %35 = load ptr, ptr %3, align 8
  ret ptr %35
}