; Function Attrs: nounwind uwtable
define hidden ptr @lexbor_array_obj_destroy(ptr noundef %0, i1 noundef zeroext %1) local_unnamed_addr #0 {
  %3 = icmp eq ptr %0, null
  br i1 %3, label %12, label %4

4:                                                ; preds = %2
  %5 = load ptr, ptr %0, align 8
  %.not = icmp eq ptr %5, null
  br i1 %.not, label %9, label %6

6:                                                ; preds = %4
  %7 = getelementptr inbounds i8, ptr %0, i64 8
  tail call void @llvm.memset.p0.i64(ptr noundef nonnull align 8 dereferenceable(16) %7, i8 0, i64 16, i1 false)
  %8 = tail call ptr @lexbor_free(ptr noundef nonnull %5) #8
  store ptr %8, ptr %0, align 8
  br label %9

9:                                                ; preds = %6, %4
  br i1 %1, label %10, label %12

10:                                               ; preds = %9
  %11 = tail call ptr @lexbor_free(ptr noundef nonnull %0) #8
  br label %12

12:                                               ; preds = %9, %2, %10
  %.0 = phi ptr [ %11, %10 ], [ null, %2 ], [ %0, %9 ]
  ret ptr %.0
}